; Function Attrs: nounwind uwtable
define ptr @l_Std_Time_PlainDateTime_millisecond___boxed(ptr noundef %0) local_unnamed_addr #1 {
  %2 = getelementptr inbounds nuw i8, ptr %0, i64 16
  %3 = load ptr, ptr %2, align 8, !tbaa !5
  %4 = getelementptr inbounds nuw i8, ptr %3, i64 32
  %5 = load ptr, ptr %4, align 8, !tbaa !5
  %6 = load ptr, ptr @l_Std_Time_PlainDateTime_withMilliseconds___closed__2, align 8, !tbaa !5
  %7 = ptrtoint ptr %5 to i64
  %8 = and i64 %7, 1
  %.not.i.i = icmp eq i64 %8, 0
  br i1 %.not.i.i, label %.critedge.i.i, label %9, !prof !4

9:                                                ; preds = %1
  %10 = ptrtoint ptr %6 to i64
  %11 = and i64 %10, 1
  %.not18.i.i = icmp eq i64 %11, 0
  br i1 %.not18.i.i, label %.critedge.i.i, label %12, !prof !4

12:                                               ; preds = %9
  %13 = lshr i64 %10, 1
  %14 = trunc i64 %13 to i32
  %15 = icmp eq i32 %14, 0
  br i1 %15, label %l_Std_Time_PlainDateTime_millisecond.exit, label %16

16:                                               ; preds = %12
  %sext.i.i = shl i64 %13, 32
  %17 = ashr exact i64 %sext.i.i, 32
  %18 = shl i64 %7, 31
  %19 = ashr i64 %18, 32
  %20 = sdiv i64 %19, %17
  %21 = srem i64 %19, %17
  %22 = icmp slt i64 %21, 0
  %23 = icmp sgt i32 %14, 0
  %.v.i.i = select i1 %23, i64 -1, i64 1
  %24 = select i1 %22, i64 %.v.i.i, i64 0
  %.016.i.i = add nsw i64 %24, %20
  %25 = add nsw i64 %.016.i.i, 2147483648
  %26 = icmp ult i64 %25, 4294967296
  br i1 %26, label %27, label %32, !prof !12

27:                                               ; preds = %16
  %28 = shl nsw i64 %.016.i.i, 1
  %29 = and i64 %28, 8589934590
  %30 = or disjoint i64 %29, 1
  %31 = inttoptr i64 %30 to ptr
  br label %l_Std_Time_PlainDateTime_millisecond.exit

32:                                               ; preds = %16
  %33 = tail call ptr @lean_big_int64_to_int(i64 noundef range(i64 -4611686016279904256, 4611686018427387905) %.016.i.i) #5
  br label %l_Std_Time_PlainDateTime_millisecond.exit

.critedge.i.i:                                    ; preds = %9, %1
  %34 = tail call ptr @lean_int_big_ediv(ptr noundef %5, ptr noundef %6) #5
  br label %l_Std_Time_PlainDateTime_millisecond.exit

l_Std_Time_PlainDateTime_millisecond.exit:        ; preds = %12, %27, %32, %.critedge.i.i
  %.1.i.i = phi ptr [ %34, %.critedge.i.i ], [ inttoptr (i64 1 to ptr), %12 ], [ %31, %27 ], [ %33, %32 ]
  %35 = ptrtoint ptr %0 to i64
  %36 = and i64 %35, 1
  %.not = icmp eq i64 %36, 0
  br i1 %.not, label %37, label %lean_dec.exit

37:                                               ; preds = %l_Std_Time_PlainDateTime_millisecond.exit
  %38 = load i32, ptr %0, align 4, !tbaa !9
  %39 = icmp sgt i32 %38, 1
  br i1 %39, label %40, label %42, !prof !12

40:                                               ; preds = %37
  %41 = add nsw i32 %38, -1
  store i32 %41, ptr %0, align 4, !tbaa !9
  br label %lean_dec.exit

42:                                               ; preds = %37
  %.not.i = icmp eq i32 %38, 0
  br i1 %.not.i, label %lean_dec.exit, label %43

43:                                               ; preds = %42
  tail call void @lean_dec_ref_cold(ptr noundef nonnull %0) #5
  br label %lean_dec.exit

lean_dec.exit:                                    ; preds = %43, %42, %40, %l_Std_Time_PlainDateTime_millisecond.exit
  ret ptr %.1.i.i
}